target datalayout = "e-m:e-p270:32:32-p271:32:32-p272:64:64-i64:64-i128:128-f80:128-n8:16:32:64-S128"
target triple = "x86_64-unknown-linux-gnu"

%struct.Token = type { i32, ptr, i64, x86_fp80, ptr, i32, ptr, ptr, ptr, ptr, i32, i32, i8, i8, ptr, ptr }
%struct.Type = type { i32, i32, i32, i8, i8, ptr, ptr, ptr, ptr, i32, ptr, ptr, ptr, i8, i8, ptr, ptr, i8, ptr }

@.str.23 = private unnamed_addr constant [2 x i8] c"(\00", align 1
@.str.36 = private unnamed_addr constant [7 x i8] c"static\00", align 1
@.str.45 = private unnamed_addr constant [9 x i8] c"restrict\00", align 1
@.str.56 = private unnamed_addr constant [2 x i8] c"[\00", align 1
@.str.59 = private unnamed_addr constant [2 x i8] c"]\00", align 1

; Function Attrs: nounwind uwtable
define internal i64 @eval(ptr noundef %node) #0 {
entry:
  %node.addr = alloca ptr, align 8
  store ptr %node, ptr %node.addr, align 8
  %0 = load ptr, ptr %node.addr, align 8
  %call = call i64 @eval2(ptr noundef %0, ptr noundef null)
  ret i64 %call
}

; Function Attrs: nounwind uwtable
define internal ptr @type_suffix(ptr noundef %rest, ptr noundef %tok, ptr noundef %ty) #0 {
entry:
  %retval = alloca ptr, align 8
  %rest.addr = alloca ptr, align 8
  %tok.addr = alloca ptr, align 8
  %ty.addr = alloca ptr, align 8
  store ptr %rest, ptr %rest.addr, align 8
  store ptr %tok, ptr %tok.addr, align 8
  store ptr %ty, ptr %ty.addr, align 8
  %0 = load ptr, ptr %tok.addr, align 8
  %call = call zeroext i1 @equal(ptr noundef %0, ptr noundef @.str.23)
  br i1 %call, label %if.then, label %if.end

if.then:                                          ; preds = %entry
  %1 = load ptr, ptr %rest.addr, align 8
  %2 = load ptr, ptr %tok.addr, align 8
  %next = getelementptr inbounds %struct.Token, ptr %2, i32 0, i32 1
  %3 = load ptr, ptr %next, align 8
  %4 = load ptr, ptr %ty.addr, align 8
  %call1 = call ptr @func_params(ptr noundef %1, ptr noundef %3, ptr noundef %4)
  store ptr %call1, ptr %retval, align 8
  br label %return

if.end:                                           ; preds = %entry
  %5 = load ptr, ptr %tok.addr, align 8
  %call2 = call zeroext i1 @equal(ptr noundef %5, ptr noundef @.str.56)
  br i1 %call2, label %if.then3, label %if.end6

if.then3:                                         ; preds = %if.end
  %6 = load ptr, ptr %rest.addr, align 8
  %7 = load ptr, ptr %tok.addr, align 8
  %next4 = getelementptr inbounds %struct.Token, ptr %7, i32 0, i32 1
  %8 = load ptr, ptr %next4, align 8
  %9 = load ptr, ptr %ty.addr, align 8
  %call5 = call ptr @array_dimensions(ptr noundef %6, ptr noundef %8, ptr noundef %9)
  store ptr %call5, ptr %retval, align 8
  br label %return

if.end6:                                          ; preds = %if.end
  %10 = load ptr, ptr %tok.addr, align 8
  %11 = load ptr, ptr %rest.addr, align 8
  store ptr %10, ptr %11, align 8
  %12 = load ptr, ptr %ty.addr, align 8
  store ptr %12, ptr %retval, align 8
  br label %return

return:                                           ; preds = %if.end6, %if.then3, %if.then
  %13 = load ptr, ptr %retval, align 8
  ret ptr %13
}

; Function Attrs: nounwind uwtable
define internal ptr @array_dimensions(ptr noundef %rest, ptr noundef %tok, ptr noundef %ty) #0 {
entry:
  %retval = alloca ptr, align 8
  %rest.addr = alloca ptr, align 8
  %tok.addr = alloca ptr, align 8
  %ty.addr = alloca ptr, align 8
  %expr = alloca ptr, align 8
  store ptr %rest, ptr %rest.addr, align 8
  store ptr %tok, ptr %tok.addr, align 8
  store ptr %ty, ptr %ty.addr, align 8
  br label %while.cond

while.cond:                                       ; preds = %while.body, %entry
  %0 = load ptr, ptr %tok.addr, align 8
  %call = call zeroext i1 @equal(ptr noundef %0, ptr noundef @.str.36)
  br i1 %call, label %lor.end, label %lor.rhs

lor.rhs:                                          ; preds = %while.cond
  %1 = load ptr, ptr %tok.addr, align 8
  %call1 = call zeroext i1 @equal(ptr noundef %1, ptr noundef @.str.45)
  br label %lor.end

lor.end:                                          ; preds = %lor.rhs, %while.cond
  %2 = phi i1 [ true, %while.cond ], [ %call1, %lor.rhs ]
  br i1 %2, label %while.body, label %while.end

while.body:                                       ; preds = %lor.end
  %3 = load ptr, ptr %tok.addr, align 8
  %next = getelementptr inbounds %struct.Token, ptr %3, i32 0, i32 1
  %4 = load ptr, ptr %next, align 8
  store ptr %4, ptr %tok.addr, align 8
  br label %while.cond, !llvm.loop !26

while.end:                                        ; preds = %lor.end
  %5 = load ptr, ptr %tok.addr, align 8
  %call2 = call zeroext i1 @equal(ptr noundef %5, ptr noundef @.str.59)
  br i1 %call2, label %if.then, label %if.end

if.then:                                          ; preds = %while.end
  %6 = load ptr, ptr %rest.addr, align 8
  %7 = load ptr, ptr %tok.addr, align 8
  %next3 = getelementptr inbounds %struct.Token, ptr %7, i32 0, i32 1
  %8 = load ptr, ptr %next3, align 8
  %9 = load ptr, ptr %ty.addr, align 8
  %call4 = call ptr @type_suffix(ptr noundef %6, ptr noundef %8, ptr noundef %9)
  store ptr %call4, ptr %ty.addr, align 8
  %10 = load ptr, ptr %ty.addr, align 8
  %call5 = call ptr @array_of(ptr noundef %10, i32 noundef -1)
  store ptr %call5, ptr %retval, align 8
  br label %return

if.end:                                           ; preds = %while.end
  %11 = load ptr, ptr %tok.addr, align 8
  %call6 = call ptr @conditional(ptr noundef %tok.addr, ptr noundef %11)
  store ptr %call6, ptr %expr, align 8
  %12 = load ptr, ptr %tok.addr, align 8
  %call7 = call ptr @skip(ptr noundef %12, ptr noundef @.str.59)
  store ptr %call7, ptr %tok.addr, align 8
  %13 = load ptr, ptr %rest.addr, align 8
  %14 = load ptr, ptr %tok.addr, align 8
  %15 = load ptr, ptr %ty.addr, align 8
  %call8 = call ptr @type_suffix(ptr noundef %13, ptr noundef %14, ptr noundef %15)
  store ptr %call8, ptr %ty.addr, align 8
  %16 = load ptr, ptr %ty.addr, align 8
  %kind = getelementptr inbounds %struct.Type, ptr %16, i32 0, i32 0
  %17 = load i32, ptr %kind, align 8
  %cmp = icmp eq i32 %17, 13
  br i1 %cmp, label %if.then10, label %lor.lhs.false

lor.lhs.false:                                    ; preds = %if.end
  %18 = load ptr, ptr %expr, align 8
  %call9 = call zeroext i1 @is_const_expr(ptr noundef %18)
  br i1 %call9, label %if.end12, label %if.then10

if.then10:                                        ; preds = %lor.lhs.false, %if.end
  %19 = load ptr, ptr %ty.addr, align 8
  %20 = load ptr, ptr %expr, align 8
  %call11 = call ptr @vla_of(ptr noundef %19, ptr noundef %20)
  store ptr %call11, ptr %retval, align 8
  br label %return

if.end12:                                         ; preds = %lor.lhs.false
  %21 = load ptr, ptr %ty.addr, align 8
  %22 = load ptr, ptr %expr, align 8
  %call13 = call i64 @eval(ptr noundef %22)
  %conv = trunc i64 %call13 to i32
  %call14 = call ptr @array_of(ptr noundef %21, i32 noundef %conv)
  store ptr %call14, ptr %retval, align 8
  br label %return

return:                                           ; preds = %if.end12, %if.then10, %if.then
  %23 = load ptr, ptr %retval, align 8
  ret ptr %23
}