; Function Attrs: nounwind uwtable
define internal fastcc ptr @array_dimensions(ptr noundef %rest, ptr noundef %tok, ptr noundef %ty) unnamed_addr #0 {
entry:
  %tok.addr = alloca ptr, align 8
  br label %while.cond

while.cond:                                       ; preds = %while.body, %entry
  %0 = phi ptr [ %tok, %entry ], [ %1, %while.body ]
  %call = tail call zeroext i1 @equal(ptr noundef %0, ptr noundef nonnull @.str.36) #13
  br i1 %call, label %while.body, label %lor.rhs

lor.rhs:                                          ; preds = %while.cond
  %call1 = tail call zeroext i1 @equal(ptr noundef %0, ptr noundef nonnull @.str.45) #13
  br i1 %call1, label %while.body, label %while.end

while.body:                                       ; preds = %while.cond, %lor.rhs
  %next = getelementptr inbounds %struct.Token, ptr %0, i64 0, i32 1
  %1 = load ptr, ptr %next, align 8
  br label %while.cond, !llvm.loop !29

while.end:                                        ; preds = %lor.rhs
  store ptr %0, ptr %tok.addr, align 8
  %call2 = tail call zeroext i1 @equal(ptr noundef %0, ptr noundef nonnull @.str.59) #13
  br i1 %call2, label %if.then, label %if.end

if.then:                                          ; preds = %while.end
  %next3 = getelementptr inbounds %struct.Token, ptr %0, i64 0, i32 1
  %2 = load ptr, ptr %next3, align 8
  %call.i = tail call zeroext i1 @equal(ptr noundef %2, ptr noundef nonnull @.str.23) #13
  br i1 %call.i, label %if.then.i, label %if.end.i

if.then.i:                                        ; preds = %if.then
  %next.i = getelementptr inbounds %struct.Token, ptr %2, i64 0, i32 1
  %3 = load ptr, ptr %next.i, align 8
  %call1.i = tail call fastcc ptr @func_params(ptr noundef %rest, ptr noundef %3, ptr noundef %ty)
  br label %type_suffix.exit

if.end.i:                                         ; preds = %if.then
  %call2.i = tail call zeroext i1 @equal(ptr noundef %2, ptr noundef nonnull @.str.56) #13
  br i1 %call2.i, label %if.then3.i, label %if.end6.i

if.then3.i:                                       ; preds = %if.end.i
  %next4.i = getelementptr inbounds %struct.Token, ptr %2, i64 0, i32 1
  %4 = load ptr, ptr %next4.i, align 8
  %call5.i = tail call fastcc ptr @array_dimensions(ptr noundef %rest, ptr noundef %4, ptr noundef %ty)
  br label %type_suffix.exit

if.end6.i:                                        ; preds = %if.end.i
  store ptr %2, ptr %rest, align 8
  br label %type_suffix.exit

type_suffix.exit:                                 ; preds = %if.then.i, %if.then3.i, %if.end6.i
  %retval.0.i = phi ptr [ %call1.i, %if.then.i ], [ %call5.i, %if.then3.i ], [ %ty, %if.end6.i ]
  %call5 = tail call ptr @array_of(ptr noundef %retval.0.i, i32 noundef -1) #13
  br label %return

if.end:                                           ; preds = %while.end
  %call6 = call fastcc ptr @conditional(ptr noundef nonnull %tok.addr, ptr noundef %0)
  %5 = load ptr, ptr %tok.addr, align 8
  %call7 = call ptr @skip(ptr noundef %5, ptr noundef nonnull @.str.59) #13
  store ptr %call7, ptr %tok.addr, align 8
  %call.i9 = call zeroext i1 @equal(ptr noundef %call7, ptr noundef nonnull @.str.23) #13
  br i1 %call.i9, label %if.then.i17, label %if.end.i10

if.then.i17:                                      ; preds = %if.end
  %next.i18 = getelementptr inbounds %struct.Token, ptr %call7, i64 0, i32 1
  %6 = load ptr, ptr %next.i18, align 8
  %call1.i19 = call fastcc ptr @func_params(ptr noundef %rest, ptr noundef %6, ptr noundef %ty)
  br label %type_suffix.exit20

if.end.i10:                                       ; preds = %if.end
  %call2.i11 = call zeroext i1 @equal(ptr noundef %call7, ptr noundef nonnull @.str.56) #13
  br i1 %call2.i11, label %if.then3.i14, label %if.end6.i12

if.then3.i14:                                     ; preds = %if.end.i10
  %next4.i15 = getelementptr inbounds %struct.Token, ptr %call7, i64 0, i32 1
  %7 = load ptr, ptr %next4.i15, align 8
  %call5.i16 = call fastcc ptr @array_dimensions(ptr noundef %rest, ptr noundef %7, ptr noundef %ty)
  br label %type_suffix.exit20

if.end6.i12:                                      ; preds = %if.end.i10
  store ptr %call7, ptr %rest, align 8
  br label %type_suffix.exit20

type_suffix.exit20:                               ; preds = %if.then.i17, %if.then3.i14, %if.end6.i12
  %retval.0.i13 = phi ptr [ %call1.i19, %if.then.i17 ], [ %call5.i16, %if.then3.i14 ], [ %ty, %if.end6.i12 ]
  %8 = load i32, ptr %retval.0.i13, align 8
  %cmp = icmp eq i32 %8, 13
  br i1 %cmp, label %if.then10, label %lor.lhs.false

lor.lhs.false:                                    ; preds = %type_suffix.exit20
  %call9 = call fastcc zeroext i1 @is_const_expr(ptr noundef %call6)
  br i1 %call9, label %if.end12, label %if.then10

if.then10:                                        ; preds = %lor.lhs.false, %type_suffix.exit20
  %call11 = call ptr @vla_of(ptr noundef nonnull %retval.0.i13, ptr noundef %call6) #13
  br label %return

if.end12:                                         ; preds = %lor.lhs.false
  %call.i21 = call fastcc i64 @eval2(ptr noundef %call6, ptr noundef null)
  %conv = trunc i64 %call.i21 to i32
  %call14 = call ptr @array_of(ptr noundef nonnull %retval.0.i13, i32 noundef %conv) #13
  br label %return

return:                                           ; preds = %if.end12, %if.then10, %type_suffix.exit
  %retval.0 = phi ptr [ %call5, %type_suffix.exit ], [ %call11, %if.then10 ], [ %call14, %if.end12 ]
  ret ptr %retval.0
}